target datalayout = "e-m:e-p270:32:32-p271:32:32-p272:64:64-i64:64-i128:128-f80:128-n8:16:32:64-S128"
target triple = "x86_64-pc-linux-gnu"

%struct.ident_t = type { i32, i32, i32, i32, ptr }

@1 = private unnamed_addr constant %struct.ident_t { i32 0, i32 514, i32 0, i32 22, ptr @0 }, align 8
@2 = private unnamed_addr constant %struct.ident_t { i32 0, i32 66, i32 0, i32 22, ptr @0 }, align 8

; Function Attrs: alwaysinline norecurse nounwind uwtable
define internal void @statevec_calcProbOfAllOutcomesLocal.omp_outlined(ptr noalias noundef %0, ptr noalias noundef %1, ptr noundef nonnull align 8 dereferenceable(8) %2, ptr noundef nonnull align 8 dereferenceable(8) %3) #2 {
  %5 = alloca ptr, align 8
  %6 = alloca ptr, align 8
  %7 = alloca ptr, align 8
  %8 = alloca ptr, align 8
  %9 = alloca i64, align 8
  %10 = alloca i64, align 8
  %11 = alloca i64, align 8
  %12 = alloca i64, align 8
  %13 = alloca i64, align 8
  %14 = alloca i64, align 8
  %15 = alloca i64, align 8
  %16 = alloca i32, align 4
  %17 = alloca i64, align 8
  store ptr %0, ptr %5, align 8, !tbaa !19
  store ptr %1, ptr %6, align 8, !tbaa !19
  store ptr %2, ptr %7, align 8, !tbaa !21
  store ptr %3, ptr %8, align 8, !tbaa !33
  %18 = load ptr, ptr %7, align 8, !tbaa !21
  %19 = load ptr, ptr %8, align 8, !tbaa !33
  call void @llvm.lifetime.start.p0(i64 8, ptr %9) #3
  call void @llvm.lifetime.start.p0(i64 8, ptr %10) #3
  %20 = load i64, ptr %18, align 8, !tbaa !4
  store i64 %20, ptr %10, align 8, !tbaa !4
  call void @llvm.lifetime.start.p0(i64 8, ptr %11) #3
  %21 = load i64, ptr %10, align 8, !tbaa !4
  %22 = sub nsw i64 %21, 0
  %23 = sdiv i64 %22, 1
  %24 = sub nsw i64 %23, 1
  store i64 %24, ptr %11, align 8, !tbaa !4
  call void @llvm.lifetime.start.p0(i64 8, ptr %12) #3
  store i64 0, ptr %12, align 8, !tbaa !4
  call void @llvm.lifetime.end.p0(i64 8, ptr %12) #3
  %25 = load i64, ptr %10, align 8, !tbaa !4
  %26 = icmp slt i64 0, %25
  br i1 %26, label %27, label %61

27:                                               ; preds = %4
  call void @llvm.lifetime.start.p0(i64 8, ptr %13) #3
  store i64 0, ptr %13, align 8, !tbaa !4
  call void @llvm.lifetime.start.p0(i64 8, ptr %14) #3
  %28 = load i64, ptr %11, align 8, !tbaa !4
  store i64 %28, ptr %14, align 8, !tbaa !4
  call void @llvm.lifetime.start.p0(i64 8, ptr %15) #3
  store i64 1, ptr %15, align 8, !tbaa !4
  call void @llvm.lifetime.start.p0(i64 4, ptr %16) #3
  store i32 0, ptr %16, align 4, !tbaa !8
  call void @llvm.lifetime.start.p0(i64 8, ptr %17) #3
  %29 = load ptr, ptr %5, align 8
  %30 = load i32, ptr %29, align 4, !tbaa !8
  call void @__kmpc_for_static_init_8(ptr @1, i32 %30, i32 34, ptr %16, ptr %13, ptr %14, ptr %15, i64 1, i64 1)
  %31 = load i64, ptr %14, align 8, !tbaa !4
  %32 = load i64, ptr %11, align 8, !tbaa !4
  %33 = icmp sgt i64 %31, %32
  br i1 %33, label %34, label %36

34:                                               ; preds = %27
  %35 = load i64, ptr %11, align 8, !tbaa !4
  br label %38

36:                                               ; preds = %27
  %37 = load i64, ptr %14, align 8, !tbaa !4
  br label %38

38:                                               ; preds = %36, %34
  %39 = phi i64 [ %35, %34 ], [ %37, %36 ]
  store i64 %39, ptr %14, align 8, !tbaa !4
  %40 = load i64, ptr %13, align 8, !tbaa !4
  store i64 %40, ptr %9, align 8, !tbaa !4
  br label %41

41:                                               ; preds = %54, %38
  %42 = load i64, ptr %9, align 8, !tbaa !4
  %43 = load i64, ptr %14, align 8, !tbaa !4
  %44 = icmp sle i64 %42, %43
  br i1 %44, label %46, label %45

45:                                               ; preds = %41
  br label %57

46:                                               ; preds = %41
  %47 = load i64, ptr %9, align 8, !tbaa !4
  %48 = mul nsw i64 %47, 1
  %49 = add nsw i64 0, %48
  store i64 %49, ptr %17, align 8, !tbaa !4
  %50 = load ptr, ptr %19, align 8, !tbaa !25
  %51 = load i64, ptr %17, align 8, !tbaa !4
  %52 = getelementptr inbounds double, ptr %50, i64 %51
  store double 0.000000e+00, ptr %52, align 8, !tbaa !10
  br label %53

53:                                               ; preds = %46
  br label %54

54:                                               ; preds = %53
  %55 = load i64, ptr %9, align 8, !tbaa !4
  %56 = add nsw i64 %55, 1
  store i64 %56, ptr %9, align 8, !tbaa !4
  br label %41

57:                                               ; preds = %45
  br label %58

58:                                               ; preds = %57
  %59 = load ptr, ptr %5, align 8
  %60 = load i32, ptr %59, align 4, !tbaa !8
  call void @__kmpc_for_static_fini(ptr @1, i32 %60)
  call void @llvm.lifetime.end.p0(i64 8, ptr %17) #3
  call void @llvm.lifetime.end.p0(i64 4, ptr %16) #3
  call void @llvm.lifetime.end.p0(i64 8, ptr %15) #3
  call void @llvm.lifetime.end.p0(i64 8, ptr %14) #3
  call void @llvm.lifetime.end.p0(i64 8, ptr %13) #3
  br label %61

61:                                               ; preds = %58, %4
  call void @llvm.lifetime.end.p0(i64 8, ptr %11) #3
  call void @llvm.lifetime.end.p0(i64 8, ptr %10) #3
  call void @llvm.lifetime.end.p0(i64 8, ptr %9) #3
  %62 = load ptr, ptr %5, align 8
  %63 = load i32, ptr %62, align 4, !tbaa !8
  call void @__kmpc_barrier(ptr @2, i32 %63)
  ret void
}