; Function Attrs: alwaysinline norecurse nounwind uwtable
define internal void @statevec_calcProbOfAllOutcomesLocal.omp_outlined(ptr noalias noundef readonly captures(none) %0, ptr noalias readnone captures(none) %1, ptr noundef nonnull readonly align 8 captures(none) dereferenceable(8) %2, ptr noundef nonnull readonly align 8 captures(none) dereferenceable(8) %3) #3 {
  %5 = alloca i64, align 8
  %6 = alloca i64, align 8
  %7 = alloca i64, align 8
  %8 = alloca i32, align 4
  %9 = load i64, ptr %2, align 8, !tbaa !16
  %10 = icmp sgt i64 %9, 0
  %.pre = load i32, ptr %0, align 4, !tbaa !18
  br i1 %10, label %11, label %21

11:                                               ; preds = %4
  %12 = add nsw i64 %9, -1
  call void @llvm.lifetime.start.p0(i64 8, ptr nonnull %5) #4
  store i64 0, ptr %5, align 8, !tbaa !16
  call void @llvm.lifetime.start.p0(i64 8, ptr nonnull %6) #4
  store i64 %12, ptr %6, align 8, !tbaa !16
  call void @llvm.lifetime.start.p0(i64 8, ptr nonnull %7) #4
  store i64 1, ptr %7, align 8, !tbaa !16
  call void @llvm.lifetime.start.p0(i64 4, ptr nonnull %8) #4
  store i32 0, ptr %8, align 4, !tbaa !18
  call void @__kmpc_for_static_init_8(ptr nonnull @1, i32 %.pre, i32 34, ptr nonnull %8, ptr nonnull %5, ptr nonnull %6, ptr nonnull %7, i64 1, i64 1)
  %13 = load i64, ptr %6, align 8, !tbaa !16
  %14 = call i64 @llvm.smin.i64(i64 %13, i64 %12)
  store i64 %14, ptr %6, align 8, !tbaa !16
  %15 = load i64, ptr %5, align 8, !tbaa !16
  %.not13 = icmp sgt i64 %15, %14
  br i1 %.not13, label %._crit_edge, label %.lr.ph

.lr.ph:                                           ; preds = %11
  %16 = load ptr, ptr %3, align 8, !tbaa !26
  %17 = shl i64 %15, 3
  %scevgep = getelementptr i8, ptr %16, i64 %17
  %18 = add nsw i64 %14, 1
  %19 = sub i64 %18, %15
  %20 = shl nuw i64 %19, 3
  call void @llvm.memset.p0.i64(ptr align 8 %scevgep, i8 0, i64 %20, i1 false), !tbaa !4
  br label %._crit_edge

._crit_edge:                                      ; preds = %.lr.ph, %11
  call void @__kmpc_for_static_fini(ptr nonnull @1, i32 %.pre)
  call void @llvm.lifetime.end.p0(i64 4, ptr nonnull %8) #4
  call void @llvm.lifetime.end.p0(i64 8, ptr nonnull %7) #4
  call void @llvm.lifetime.end.p0(i64 8, ptr nonnull %6) #4
  call void @llvm.lifetime.end.p0(i64 8, ptr nonnull %5) #4
  br label %21

21:                                               ; preds = %._crit_edge, %4
  call void @__kmpc_barrier(ptr nonnull @2, i32 %.pre)
  ret void
}